# SymbolsHelper-Confirmed: 5.2.1 amd64 arm64 armel armhf hurd-i386 i386 ia64 kfreebsd-amd64 kfreebsd-i386 mips mipsel powerpc ppc64 ppc64el s390x sparc
libQt5DesignerComponents.so.5 libqt5designercomponents5 #MINVER#
 _ZN18qdesigner_internal18QEditorFormBuilderD0Ev@Base 5.0.2
 _ZN18qdesigner_internal18QEditorFormBuilderD1Ev@Base 5.0.2
 _ZN18qdesigner_internal18QEditorFormBuilderD2Ev@Base 5.0.2
 (arch=sparc)_ZN18qdesigner_internal22PropertySheetEnumValueC1ERKS0_@Base 5.2.1
 (arch=sparc)_ZN18qdesigner_internal22PropertySheetEnumValueC2ERKS0_@Base 5.2.1
 (arch=sparc)_ZN18qdesigner_internal22PropertySheetEnumValueD1Ev@Base 5.2.0
 (arch=sparc)_ZN18qdesigner_internal22PropertySheetEnumValueD2Ev@Base 5.2.0
 (arch=sparc)_ZN18qdesigner_internal22PropertySheetFlagValueC1ERKS0_@Base 5.2.0
 (arch=sparc)_ZN18qdesigner_internal22PropertySheetFlagValueC2ERKS0_@Base 5.2.0
 (arch=sparc)_ZN18qdesigner_internal22PropertySheetFlagValueD1Ev@Base 5.2.0
 (arch=sparc)_ZN18qdesigner_internal22PropertySheetFlagValueD2Ev@Base 5.2.0
 (arch=amd64 hurd-i386 i386 kfreebsd-amd64 kfreebsd-i386 sparc)_ZN18qdesigner_internal24PropertySheetStringValueC1ERKS0_@Base 5.0.2
 (arch=amd64 hurd-i386 i386 kfreebsd-amd64 kfreebsd-i386 sparc)_ZN18qdesigner_internal24PropertySheetStringValueC2ERKS0_@Base 5.0.2
 _ZN18qdesigner_internal24PropertySheetStringValueD1Ev@Base 5.0.2
 _ZN18qdesigner_internal24PropertySheetStringValueD2Ev@Base 5.0.2
 (arch=sparc)_ZN18qdesigner_internal28PropertySheetStringListValueC1ERKS0_@Base 5.2.0
 (arch=sparc)_ZN18qdesigner_internal28PropertySheetStringListValueC2ERKS0_@Base 5.2.0
 (arch=!ia64)_ZN18qdesigner_internal28PropertySheetStringListValueD1Ev@Base 5.0.2
 (arch=!ia64)_ZN18qdesigner_internal28PropertySheetStringListValueD2Ev@Base 5.0.2
 (arch=sparc)_ZN18qdesigner_internal28PropertySheetStringListValueaSERKS0_@Base 5.2.0
 (arch=!ia64)_ZN18qdesigner_internal29PropertySheetKeySequenceValueC1ERKS0_@Base 5.0.2
 (arch=!ia64)_ZN18qdesigner_internal29PropertySheetKeySequenceValueC2ERKS0_@Base 5.0.2
 _ZN18qdesigner_internal29PropertySheetKeySequenceValueD1Ev@Base 5.0.2
 _ZN18qdesigner_internal29PropertySheetKeySequenceValueD2Ev@Base 5.0.2
 (arch=!ia64 !sparc)_ZN18qdesigner_internal29PropertySheetTranslatableDataC1ERKS0_@Base 5.2.1
 (arch=!ia64 !sparc)_ZN18qdesigner_internal29PropertySheetTranslatableDataC2ERKS0_@Base 5.2.1
 _ZN18qdesigner_internal9CECommandD0Ev@Base 5.0.2
 _ZN18qdesigner_internal9CECommandD1Ev@Base 5.0.2
 _ZN18qdesigner_internal9CECommandD2Ev@Base 5.0.2
 _ZN19QDesignerComponents14createTaskMenuEP28QDesignerFormEditorInterfaceP7QObject@Base 5.0.2
 _ZN19QDesignerComponents15createWidgetBoxEP28QDesignerFormEditorInterfaceP7QWidget@Base 5.0.2
 _ZN19QDesignerComponents16createFormEditorEP7QObject@Base 5.0.2
 _ZN19QDesignerComponents17initializePluginsEP28QDesignerFormEditorInterface@Base 5.0.2
 _ZN19QDesignerComponents18createActionEditorEP28QDesignerFormEditorInterfaceP7QWidget@Base 5.0.2
 _ZN19QDesignerComponents19initializeResourcesEv@Base 5.0.2
 _ZN19QDesignerComponents20createPropertyEditorEP28QDesignerFormEditorInterfaceP7QWidget@Base 5.0.2
 _ZN19QDesignerComponents20createResourceEditorEP28QDesignerFormEditorInterfaceP7QWidget@Base 5.0.2
 _ZN19QDesignerComponents21createObjectInspectorEP28QDesignerFormEditorInterfaceP7QWidget@Base 5.0.2
 _ZN19QDesignerComponents22createSignalSlotEditorEP28QDesignerFormEditorInterfaceP7QWidget@Base 5.0.2
 (optional=templinst|arch=sparc)_ZN8QVariant8setValueI4QMapIi5QIconEEEvRKT_@Base 5.2.1
 (optional=templinst|arch=sparc)_ZN8QVariant8setValueI5QListI5QPairI7QStringjEEEEvRKT_@Base 5.2.1
 (optional=templinst|arch=ia64 sparc)_ZN8QVariant9fromValueIN18qdesigner_internal22PropertySheetIconValueEEES_RKT_@Base 5.0.2
 (optional=templinst|arch=ia64 sparc)_ZN8QVariant9fromValueIN18qdesigner_internal24PropertySheetPixmapValueEEES_RKT_@Base 5.0.2
 (optional=templinst|arch=ia64 sparc)_ZN8QVariant9fromValueIN18qdesigner_internal24PropertySheetStringValueEEES_RKT_@Base 5.0.2
 (optional=templinst|arch=ia64 sparc)_ZN8QVariant9fromValueIN18qdesigner_internal28PropertySheetStringListValueEEES_RKT_@Base 5.0.2
 (optional=templinst|arch=ia64 sparc)_ZN8QVariant9fromValueIN18qdesigner_internal29PropertySheetKeySequenceValueEEES_RKT_@Base 5.0.2
 (optional=templinst|arch=sparc)_ZSt11__push_heapIN5QListI11QModelIndexE8iteratorEiS1_PFbRKS1_S5_EEvT_T0_S9_T1_T2_@Base 5.2.0~beta1
 (optional=templinst|arch=ia64)_ZSt11__push_heapIN5QListI11QModelIndexE8iteratorExS1_PFbRKS1_S5_EEvT_T0_S9_T1_T2_@Base 5.2.0
 (optional=templinst|arch=sparc)_ZSt11__push_heapIN5QListIN18qdesigner_internal13DeviceProfileEE8iteratorEiS2_PFbRKS2_S6_EEvT_T0_SA_T1_T2_@Base 5.2.0~beta1
 (optional=templinst|arch=ia64)_ZSt11__push_heapIN5QListIN18qdesigner_internal13DeviceProfileEE8iteratorExS2_PFbRKS2_S6_EEvT_T0_SA_T1_T2_@Base 5.2.0
 (optional=templinst|arch=sparc)_ZSt13__adjust_heapIN5QListI11QModelIndexE8iteratorEiS1_PFbRKS1_S5_EEvT_T0_S9_T1_T2_@Base 5.2.0~beta1
 (optional=templinst|arch=ia64)_ZSt13__adjust_heapIN5QListI11QModelIndexE8iteratorExS1_PFbRKS1_S5_EEvT_T0_S9_T1_T2_@Base 5.2.0
 (optional=templinst|arch=sparc)_ZSt13__adjust_heapIN5QListIN18qdesigner_internal13DeviceProfileEE8iteratorEiS2_PFbRKS2_S6_EEvT_T0_SA_T1_T2_@Base 5.2.0~beta1
 (optional=templinst|arch=ia64)_ZSt13__adjust_heapIN5QListIN18qdesigner_internal13DeviceProfileEE8iteratorExS2_PFbRKS2_S6_EEvT_T0_SA_T1_T2_@Base 5.2.0
 (optional=templinst|arch=sparc)_ZSt13__adjust_heapIN5QListIP7QObjectE8iteratorEiS2_PFbPKS1_S6_EEvT_T0_SA_T1_T2_@Base 5.2.0~beta1
 (optional=templinst|arch=ia64)_ZSt13__adjust_heapIN5QListIP7QObjectE8iteratorExS2_PFbPKS1_S6_EEvT_T0_SA_T1_T2_@Base 5.2.0
 (optional=templinst|arch=ia64 sparc)_ZSt13__heap_selectIN5QListI11QModelIndexE8iteratorEPFbRKS1_S5_EEvT_S8_S8_T0_@Base 5.2.0~beta1
 (optional=templinst|arch=sparc)_ZSt13__heap_selectIN5QListIP7QObjectE8iteratorEPFbPKS1_S6_EEvT_S9_S9_T0_@Base 5.2.1
 (optional=templinst|arch=sparc)_ZSt16__insertion_sortIN5QListI11QModelIndexE8iteratorEPFbRKS1_S5_EEvT_S8_T0_@Base 5.2.1
 (optional=templinst|arch=sparc)_ZSt16__insertion_sortIN5QListIN18qdesigner_internal13DeviceProfileEE8iteratorEPFbRKS2_S6_EEvT_S9_T0_@Base 5.2.1
 (optional=templinst|arch=sparc)_ZSt16__insertion_sortIN5QListIP7QObjectE8iteratorEPFbPKS1_S6_EEvT_S9_T0_@Base 5.2.1
 (optional=templinst|arch=sparc)_ZSt16__introsort_loopIN5QListI11QModelIndexE8iteratorEiPFbRKS1_S5_EEvT_S8_T0_T1_@Base 5.2.1
 (optional=templinst|arch=sparc)_ZSt16__introsort_loopIN5QListIN18qdesigner_internal13DeviceProfileEE8iteratorEiPFbRKS2_S6_EEvT_S9_T0_T1_@Base 5.2.1
 (optional=templinst|arch=sparc)_ZSt16__introsort_loopIN5QListIP7QObjectE8iteratorEiPFbPKS1_S6_EEvT_S9_T0_T1_@Base 5.2.1
 (optional=templinst|arch=sparc)_ZSt19__move_median_firstIN5QListI11QModelIndexE8iteratorEPFbRKS1_S5_EEvT_S8_S8_T0_@Base 5.2.1
 (optional=templinst|arch=sparc)_ZSt19__move_median_firstIN5QListIN18qdesigner_internal13DeviceProfileEE8iteratorEPFbRKS2_S6_EEvT_S9_S9_T0_@Base 5.2.1
 (optional=templinst|arch=sparc)_ZSt19__move_median_firstIN5QListIP7QObjectE8iteratorEPFbPKS1_S6_EEvT_S9_S9_T0_@Base 5.2.1
 (optional=templinst|arch=sparc)_ZSt21__unguarded_partitionIN5QListI11QModelIndexE8iteratorES1_PFbRKS1_S5_EET_S8_S8_RKT0_T1_@Base 5.2.1
 (optional=templinst|arch=sparc)_ZSt21__unguarded_partitionIN5QListIN18qdesigner_internal13DeviceProfileEE8iteratorES2_PFbRKS2_S6_EET_S9_S9_RKT0_T1_@Base 5.2.1
 (optional=templinst|arch=sparc)_ZSt21__unguarded_partitionIN5QListIP7QObjectE8iteratorES2_PFbPKS1_S6_EET_S9_S9_RKT0_T1_@Base 5.2.1
 (optional=templinst|arch=sparc)_ZSt22__final_insertion_sortIN5QListIP7QObjectE8iteratorEPFbPKS1_S6_EEvT_S9_T0_@Base 5.2.1
 (optional=templinst|arch=sparc)_ZSt25__unguarded_linear_insertIN5QListI11QModelIndexE8iteratorEPFbRKS1_S5_EEvT_T0_@Base 5.2.1
 (optional=templinst|arch=sparc)_ZSt25__unguarded_linear_insertIN5QListIN18qdesigner_internal13DeviceProfileEE8iteratorEPFbRKS2_S6_EEvT_T0_@Base 5.2.1
 (optional=templinst|arch=armel armhf hurd-i386 i386 kfreebsd-i386 mips mipsel powerpc)_ZSt4swapIN8QVariant7PrivateEEvRT_S3_@Base 5.1.0
 (optional=templinst|arch=sparc)_ZSt9make_heapIN5QListIN18qdesigner_internal13DeviceProfileEE8iteratorEPFbRKS2_S6_EEvT_S9_T0_@Base 5.2.1
 _ZTI29QDesignerOptionsPageInterface@Base 5.0.2
 _ZTI34QDesignerFormEditorPluginInterface@Base 5.0.2
 _ZTI34QDesignerFormWindowCursorInterface@Base 5.0.2
 _ZTIN18qdesigner_internal18QEditorFormBuilderE@Base 5.0.2
 _ZTIN18qdesigner_internal7CETypesE@Base 5.0.2
 _ZTIN18qdesigner_internal9CECommandE@Base 5.0.2
 _ZTS29QDesignerOptionsPageInterface@Base 5.0.2
 _ZTS34QDesignerFormEditorPluginInterface@Base 5.0.2
 _ZTS34QDesignerFormWindowCursorInterface@Base 5.0.2
 _ZTSN18qdesigner_internal18QEditorFormBuilderE@Base 5.0.2
 _ZTSN18qdesigner_internal7CETypesE@Base 5.0.2
 _ZTSN18qdesigner_internal9CECommandE@Base 5.0.2
 _ZTV29QDesignerOptionsPageInterface@Base 5.0.2
 _ZTV34QDesignerFormEditorPluginInterface@Base 5.0.2
 _ZTV34QDesignerFormWindowCursorInterface@Base 5.0.2
 _ZTVN18qdesigner_internal18QEditorFormBuilderE@Base 5.0.2
 _ZTVN18qdesigner_internal9CECommandE@Base 5.0.2
